target datalayout = "e-m:e-p270:32:32-p271:32:32-p272:64:64-i64:64-i128:128-f80:128-n8:16:32:64-S128"
target triple = "x86_64-pc-linux-gnu"

%struct.H5D_t = type { %struct.H5O_loc_t, %struct.H5G_name_t, ptr }
%struct.H5O_loc_t = type { ptr, i64, i8 }
%struct.H5G_name_t = type { ptr, ptr, i32 }
%struct.H5D_shared_t = type { i64, i8, i64, ptr, ptr, i64, i64, %struct.H5D_dcpl_cache_t, %struct.H5O_layout_t, i8, i32, [32 x i64], [32 x i64], [32 x i64], %struct.anon.6, %struct.H5D_append_flush_t, ptr, ptr }
%struct.H5D_dcpl_cache_t = type { %struct.H5O_fill_t, %struct.H5O_pline_t, %struct.H5O_efl_t }
%struct.H5O_fill_t = type { %struct.H5O_shared_t, i32, ptr, i64, ptr, i32, i32, i8 }
%struct.H5O_shared_t = type { i32, ptr, i32, %union.anon }
%union.anon = type { %struct.H5O_mesg_loc_t }
%struct.H5O_mesg_loc_t = type { i32, i64 }
%struct.H5O_pline_t = type { %struct.H5O_shared_t, i32, i64, i64, ptr }
%struct.H5O_efl_t = type { i64, i64, i64, ptr }
%struct.H5O_layout_t = type { i32, i32, ptr, %union.anon.0, %struct.H5O_storage_t }
%union.anon.0 = type { %struct.H5O_layout_chunk_t }
%struct.H5O_layout_chunk_t = type { i32, i8, i32, [33 x i32], i32, i32, i64, i64, [33 x i64], [33 x i64], [33 x i64], [33 x i64], %union.anon.1 }
%union.anon.1 = type { %struct.H5O_layout_chunk_earray_t }
%struct.H5O_layout_chunk_earray_t = type { %struct.anon.2, i32, [33 x i32], [33 x i64], [33 x i64] }
%struct.anon.2 = type { i8, i8, i8, i8, i8 }
%struct.H5O_storage_t = type { i32, %union.anon.4 }
%union.anon.4 = type { %struct.H5O_storage_virtual_t }
%struct.H5O_storage_virtual_t = type { %struct.H5HG_t, i64, ptr, i64, [32 x i64], i32, i64, i64, i64, i8 }
%struct.H5HG_t = type { i64, i64 }
%struct.anon.6 = type { %struct.H5D_rdcdc_t, %struct.H5D_rdcc_t }
%struct.H5D_rdcdc_t = type { ptr, i64, i64, i64, i8 }
%struct.H5D_rdcc_t = type { %struct.anon.7, i64, i64, double, ptr, ptr, ptr, i64, i32, %struct.H5D_chunk_cached_t, ptr, ptr, ptr, ptr, [32 x i64], [32 x i64], [32 x i32] }
%struct.anon.7 = type { i32, i32, i32, i32 }
%struct.H5D_chunk_cached_t = type { i8, [33 x i64], i64, i32, i64, i32 }
%struct.H5D_append_flush_t = type { i32, [32 x i64], ptr, ptr }
%struct.H5O_storage_compact_t = type { i8, i64, ptr }

@H5D_init_g = external global i8, align 1
@H5_libterm_g = external global i8, align 1
@.str = private unnamed_addr constant [104 x i8] c"generated/home/dtcxzyw/WorkSpace/Projects/compilers/llvm-opt-benchmark/bench/hdf5/hdf5/src/H5Dcompact.c\00", align 1
@H5E_DATASET_g = external global i64, align 8
@__func__.H5D__compact_init = private unnamed_addr constant [18 x i8] c"H5D__compact_init\00", align 1
@H5E_CANTGET_g = external global i64, align 8
@.str.19 = private unnamed_addr constant [24 x i8] c"can't get datatype size\00", align 1
@.str.20 = private unnamed_addr constant [52 x i8] c"can't get number of elements in dataset's dataspace\00", align 1
@H5E_OVERFLOW_g = external global i64, align 8
@.str.21 = private unnamed_addr constant [37 x i8] c"size of dataset's storage overflowed\00", align 1
@H5E_BADVALUE_g = external global i64, align 8
@.str.22 = private unnamed_addr constant [105 x i8] c"bad value from dataset header - size of compact dataset's data buffer doesn't match size of dataset data\00", align 1

; Function Attrs: nounwind uwtable
define internal i32 @H5D__compact_init(ptr noundef %0, ptr noundef %1, i64 noundef %2) #0 {
  %4 = alloca ptr, align 8
  %5 = alloca ptr, align 8
  %6 = alloca i64, align 8
  %7 = alloca i64, align 8
  %8 = alloca i64, align 8
  %9 = alloca i64, align 8
  %10 = alloca i64, align 8
  %11 = alloca i32, align 4
  %12 = alloca i8, align 1
  store ptr %0, ptr %4, align 8, !tbaa !3
  store ptr %1, ptr %5, align 8, !tbaa !8
  store i64 %2, ptr %6, align 8, !tbaa !49
  call void @llvm.lifetime.start.p0(i64 8, ptr %7) #6
  call void @llvm.lifetime.start.p0(i64 8, ptr %8) #6
  call void @llvm.lifetime.start.p0(i64 8, ptr %9) #6
  call void @llvm.lifetime.start.p0(i64 8, ptr %10) #6
  call void @llvm.lifetime.start.p0(i64 4, ptr %11) #6
  store i32 0, ptr %11, align 4, !tbaa !10
  call void @llvm.lifetime.start.p0(i64 1, ptr %12) #6
  store i8 0, ptr %12, align 1, !tbaa !12
  %13 = load i8, ptr @H5D_init_g, align 1, !tbaa !12, !range !14, !noundef !15
  %14 = trunc i8 %13 to i1
  br i1 %14, label %19, label %15

15:                                               ; preds = %3
  %16 = load i8, ptr @H5_libterm_g, align 1, !tbaa !12, !range !14, !noundef !15
  %17 = trunc i8 %16 to i1
  %18 = xor i1 %17, true
  br label %19

19:                                               ; preds = %15, %3
  %20 = phi i1 [ true, %3 ], [ %18, %15 ]
  %21 = xor i1 %20, true
  %22 = xor i1 %21, true
  %23 = zext i1 %22 to i32
  %24 = sext i32 %23 to i64
  %25 = call i64 @llvm.expect.i64(i64 %24, i64 1)
  %26 = icmp ne i64 %25, 0
  br i1 %26, label %27, label %142

27:                                               ; preds = %19
  %28 = load ptr, ptr %5, align 8, !tbaa !8
  %29 = getelementptr inbounds nuw %struct.H5D_t, ptr %28, i32 0, i32 2
  %30 = load ptr, ptr %29, align 8, !tbaa !16
  %31 = getelementptr inbounds nuw %struct.H5D_shared_t, ptr %30, i32 0, i32 3
  %32 = load ptr, ptr %31, align 8, !tbaa !53
  %33 = call i64 @H5T_get_size(ptr noundef %32)
  store i64 %33, ptr %9, align 8, !tbaa !49
  %34 = icmp eq i64 0, %33
  br i1 %34, label %35, label %54

35:                                               ; preds = %27
  br label %36

36:                                               ; preds = %35
  br label %37

37:                                               ; preds = %36
  br label %38

38:                                               ; preds = %37
  %39 = load i64, ptr @H5E_DATASET_g, align 8, !tbaa !49
  %40 = load i64, ptr @H5E_CANTGET_g, align 8, !tbaa !49
  %41 = call i32 (ptr, ptr, i32, i64, i64, ptr, ...) @H5E_printf_stack(ptr noundef @.str, ptr noundef @__func__.H5D__compact_init, i32 noundef 237, i64 noundef %39, i64 noundef %40, ptr noundef @.str.19)
  br label %42

42:                                               ; preds = %38
  br label %43

43:                                               ; preds = %42
  store i8 1, ptr %12, align 1, !tbaa !12
  %44 = load i8, ptr %12, align 1, !tbaa !12, !range !14, !noundef !15
  %45 = trunc i8 %44 to i1
  %46 = zext i1 %45 to i8
  store i8 %46, ptr %12, align 1, !tbaa !12
  br label %47

47:                                               ; preds = %43
  br label %48

48:                                               ; preds = %47
  br label %49

49:                                               ; preds = %48
  store i32 -1, ptr %11, align 4, !tbaa !10
  br label %141

50:                                               ; No predecessors!
  br label %51

51:                                               ; preds = %50
  br label %52

52:                                               ; preds = %51
  br label %53

53:                                               ; preds = %52
  br label %54

54:                                               ; preds = %53, %27
  %55 = load ptr, ptr %5, align 8, !tbaa !8
  %56 = getelementptr inbounds nuw %struct.H5D_t, ptr %55, i32 0, i32 2
  %57 = load ptr, ptr %56, align 8, !tbaa !16
  %58 = getelementptr inbounds nuw %struct.H5D_shared_t, ptr %57, i32 0, i32 4
  %59 = load ptr, ptr %58, align 8, !tbaa !52
  %60 = call i64 @H5S_get_simple_extent_npoints(ptr noundef %59)
  store i64 %60, ptr %7, align 8, !tbaa !49
  %61 = icmp slt i64 %60, 0
  br i1 %61, label %62, label %81

62:                                               ; preds = %54
  br label %63

63:                                               ; preds = %62
  br label %64

64:                                               ; preds = %63
  br label %65

65:                                               ; preds = %64
  %66 = load i64, ptr @H5E_DATASET_g, align 8, !tbaa !49
  %67 = load i64, ptr @H5E_CANTGET_g, align 8, !tbaa !49
  %68 = call i32 (ptr, ptr, i32, i64, i64, ptr, ...) @H5E_printf_stack(ptr noundef @.str, ptr noundef @__func__.H5D__compact_init, i32 noundef 239, i64 noundef %66, i64 noundef %67, ptr noundef @.str.20)
  br label %69

69:                                               ; preds = %65
  br label %70

70:                                               ; preds = %69
  store i8 1, ptr %12, align 1, !tbaa !12
  %71 = load i8, ptr %12, align 1, !tbaa !12, !range !14, !noundef !15
  %72 = trunc i8 %71 to i1
  %73 = zext i1 %72 to i8
  store i8 %73, ptr %12, align 1, !tbaa !12
  br label %74

74:                                               ; preds = %70
  br label %75

75:                                               ; preds = %74
  br label %76

76:                                               ; preds = %75
  store i32 -1, ptr %11, align 4, !tbaa !10
  br label %141

77:                                               ; No predecessors!
  br label %78

78:                                               ; preds = %77
  br label %79

79:                                               ; preds = %78
  br label %80

80:                                               ; preds = %79
  br label %81

81:                                               ; preds = %80, %54
  %82 = load i64, ptr %7, align 8, !tbaa !49
  store i64 %82, ptr %8, align 8, !tbaa !49
  %83 = load i64, ptr %8, align 8, !tbaa !49
  %84 = load i64, ptr %9, align 8, !tbaa !49
  %85 = mul i64 %83, %84
  store i64 %85, ptr %10, align 8, !tbaa !49
  %86 = load i64, ptr %8, align 8, !tbaa !49
  %87 = load i64, ptr %10, align 8, !tbaa !49
  %88 = load i64, ptr %9, align 8, !tbaa !49
  %89 = udiv i64 %87, %88
  %90 = icmp ne i64 %86, %89
  br i1 %90, label %91, label %110

91:                                               ; preds = %81
  br label %92

92:                                               ; preds = %91
  br label %93

93:                                               ; preds = %92
  br label %94

94:                                               ; preds = %93
  %95 = load i64, ptr @H5E_DATASET_g, align 8, !tbaa !49
  %96 = load i64, ptr @H5E_OVERFLOW_g, align 8, !tbaa !49
  %97 = call i32 (ptr, ptr, i32, i64, i64, ptr, ...) @H5E_printf_stack(ptr noundef @.str, ptr noundef @__func__.H5D__compact_init, i32 noundef 247, i64 noundef %95, i64 noundef %96, ptr noundef @.str.21)
  br label %98

98:                                               ; preds = %94
  br label %99

99:                                               ; preds = %98
  store i8 1, ptr %12, align 1, !tbaa !12
  %100 = load i8, ptr %12, align 1, !tbaa !12, !range !14, !noundef !15
  %101 = trunc i8 %100 to i1
  %102 = zext i1 %101 to i8
  store i8 %102, ptr %12, align 1, !tbaa !12
  br label %103

103:                                              ; preds = %99
  br label %104

104:                                              ; preds = %103
  br label %105

105:                                              ; preds = %104
  store i32 -1, ptr %11, align 4, !tbaa !10
  br label %141

106:                                              ; No predecessors!
  br label %107

107:                                              ; preds = %106
  br label %108

108:                                              ; preds = %107
  br label %109

109:                                              ; preds = %108
  br label %110

110:                                              ; preds = %109, %81
  %111 = load ptr, ptr %5, align 8, !tbaa !8
  %112 = getelementptr inbounds nuw %struct.H5D_t, ptr %111, i32 0, i32 2
  %113 = load ptr, ptr %112, align 8, !tbaa !16
  %114 = getelementptr inbounds nuw %struct.H5D_shared_t, ptr %113, i32 0, i32 8
  %115 = getelementptr inbounds nuw %struct.H5O_layout_t, ptr %114, i32 0, i32 4
  %116 = getelementptr inbounds nuw %struct.H5O_storage_t, ptr %115, i32 0, i32 1
  %117 = getelementptr inbounds nuw %struct.H5O_storage_compact_t, ptr %116, i32 0, i32 1
  %118 = load i64, ptr %117, align 8, !tbaa !54
  %119 = load i64, ptr %10, align 8, !tbaa !49
  %120 = icmp ne i64 %118, %119
  br i1 %120, label %121, label %140

121:                                              ; preds = %110
  br label %122

122:                                              ; preds = %121
  br label %123

123:                                              ; preds = %122
  br label %124

124:                                              ; preds = %123
  %125 = load i64, ptr @H5E_DATASET_g, align 8, !tbaa !49
  %126 = load i64, ptr @H5E_BADVALUE_g, align 8, !tbaa !49
  %127 = call i32 (ptr, ptr, i32, i64, i64, ptr, ...) @H5E_printf_stack(ptr noundef @.str, ptr noundef @__func__.H5D__compact_init, i32 noundef 253, i64 noundef %125, i64 noundef %126, ptr noundef @.str.22)
  br label %128

128:                                              ; preds = %124
  br label %129

129:                                              ; preds = %128
  store i8 1, ptr %12, align 1, !tbaa !12
  %130 = load i8, ptr %12, align 1, !tbaa !12, !range !14, !noundef !15
  %131 = trunc i8 %130 to i1
  %132 = zext i1 %131 to i8
  store i8 %132, ptr %12, align 1, !tbaa !12
  br label %133

133:                                              ; preds = %129
  br label %134

134:                                              ; preds = %133
  br label %135

135:                                              ; preds = %134
  store i32 -1, ptr %11, align 4, !tbaa !10
  br label %141

136:                                              ; No predecessors!
  br label %137

137:                                              ; preds = %136
  br label %138

138:                                              ; preds = %137
  br label %139

139:                                              ; preds = %138
  br label %140

140:                                              ; preds = %139, %110
  br label %141

141:                                              ; preds = %140, %135, %105, %76, %49
  br label %142

142:                                              ; preds = %141, %19
  %143 = load i32, ptr %11, align 4, !tbaa !10
  call void @llvm.lifetime.end.p0(i64 1, ptr %12) #6
  call void @llvm.lifetime.end.p0(i64 4, ptr %11) #6
  call void @llvm.lifetime.end.p0(i64 8, ptr %10) #6
  call void @llvm.lifetime.end.p0(i64 8, ptr %9) #6
  call void @llvm.lifetime.end.p0(i64 8, ptr %8) #6
  call void @llvm.lifetime.end.p0(i64 8, ptr %7) #6
  ret i32 %143
}