; Function Attrs: nounwind uwtable
define internal range(i32 -1, 1) i32 @H5D__compact_init(ptr readnone captures(none) %0, ptr noundef readonly captures(none) %1, i64 %2) #0 {
  %4 = load i8, ptr @H5D_init_g, align 1, !tbaa !3, !range !7, !noundef !8
  %5 = trunc nuw i8 %4 to i1
  %6 = load i8, ptr @H5_libterm_g, align 1, !range !7
  %7 = trunc nuw i8 %6 to i1
  %8 = xor i1 %7, true
  %9 = select i1 %5, i1 true, i1 %8
  br i1 %9, label %10, label %44, !prof !9

10:                                               ; preds = %3
  %11 = getelementptr inbounds nuw i8, ptr %1, i64 48
  %12 = load ptr, ptr %11, align 8, !tbaa !10
  %13 = getelementptr inbounds nuw i8, ptr %12, i64 24
  %14 = load ptr, ptr %13, align 8, !tbaa !50
  %15 = tail call i64 @H5T_get_size(ptr noundef %14) #8
  %16 = icmp eq i64 %15, 0
  br i1 %16, label %17, label %21

17:                                               ; preds = %10
  %18 = load i64, ptr @H5E_DATASET_g, align 8, !tbaa !48
  %19 = load i64, ptr @H5E_CANTGET_g, align 8, !tbaa !48
  %20 = tail call i32 (ptr, ptr, i32, i64, i64, ptr, ...) @H5E_printf_stack(ptr noundef nonnull @.str, ptr noundef nonnull @__func__.H5D__compact_init, i32 noundef 237, i64 noundef %18, i64 noundef %19, ptr noundef nonnull @.str.19) #8
  br label %44

21:                                               ; preds = %10
  %22 = load ptr, ptr %11, align 8, !tbaa !10
  %23 = getelementptr inbounds nuw i8, ptr %22, i64 32
  %24 = load ptr, ptr %23, align 8, !tbaa !49
  %25 = tail call i64 @H5S_get_simple_extent_npoints(ptr noundef %24) #8
  %26 = icmp slt i64 %25, 0
  br i1 %26, label %27, label %31

27:                                               ; preds = %21
  %28 = load i64, ptr @H5E_DATASET_g, align 8, !tbaa !48
  %29 = load i64, ptr @H5E_CANTGET_g, align 8, !tbaa !48
  %30 = tail call i32 (ptr, ptr, i32, i64, i64, ptr, ...) @H5E_printf_stack(ptr noundef nonnull @.str, ptr noundef nonnull @__func__.H5D__compact_init, i32 noundef 239, i64 noundef %28, i64 noundef %29, ptr noundef nonnull @.str.20) #8
  br label %44

31:                                               ; preds = %21
  %mul = tail call { i64, i1 } @llvm.umul.with.overflow.i64(i64 %15, i64 %25)
  %mul.ov = extractvalue { i64, i1 } %mul, 1
  br i1 %mul.ov, label %32, label %36

32:                                               ; preds = %31
  %33 = load i64, ptr @H5E_DATASET_g, align 8, !tbaa !48
  %34 = load i64, ptr @H5E_OVERFLOW_g, align 8, !tbaa !48
  %35 = tail call i32 (ptr, ptr, i32, i64, i64, ptr, ...) @H5E_printf_stack(ptr noundef nonnull @.str, ptr noundef nonnull @__func__.H5D__compact_init, i32 noundef 247, i64 noundef %33, i64 noundef %34, ptr noundef nonnull @.str.21) #8
  br label %44

36:                                               ; preds = %31
  %mul.val = extractvalue { i64, i1 } %mul, 0
  %37 = load ptr, ptr %11, align 8, !tbaa !10
  %38 = getelementptr inbounds nuw i8, ptr %37, i64 2176
  %39 = load i64, ptr %38, align 8, !tbaa !51
  %.not = icmp eq i64 %39, %mul.val
  br i1 %.not, label %44, label %40

40:                                               ; preds = %36
  %41 = load i64, ptr @H5E_DATASET_g, align 8, !tbaa !48
  %42 = load i64, ptr @H5E_BADVALUE_g, align 8, !tbaa !48
  %43 = tail call i32 (ptr, ptr, i32, i64, i64, ptr, ...) @H5E_printf_stack(ptr noundef nonnull @.str, ptr noundef nonnull @__func__.H5D__compact_init, i32 noundef 253, i64 noundef %41, i64 noundef %42, ptr noundef nonnull @.str.22) #8
  br label %44

44:                                               ; preds = %17, %27, %32, %40, %36, %3
  %.0 = phi i32 [ -1, %17 ], [ -1, %27 ], [ -1, %32 ], [ -1, %40 ], [ 0, %36 ], [ 0, %3 ]
  ret i32 %.0
}